; Function Attrs: nounwind uwtable
define dso_local range(i32 0, 5) i32 @match_pathspec(ptr noundef %0, ptr noundef readonly captures(none) %1, ptr noundef %2, i32 noundef %3, i32 noundef %4, ptr noundef %5, i32 noundef %6) local_unnamed_addr #0 {
  %.not = icmp eq i32 %6, 0
  %8 = select i1 %.not, i32 0, i32 2
  %9 = tail call fastcc i32 @do_match_pathspec(ptr noundef %0, ptr noundef readonly %1, ptr noundef %2, i32 noundef %3, i32 noundef %4, ptr noundef %5, i32 noundef range(i32 0, 7) %8)
  %10 = getelementptr inbounds nuw i8, ptr %1, i64 8
  %11 = load i32, ptr %10, align 8, !tbaa !23
  %12 = and i32 %11, 32
  %13 = icmp ne i32 %12, 0
  %14 = icmp ne i32 %9, 0
  %or.cond.i = select i1 %13, i1 %14, i1 false
  br i1 %or.cond.i, label %15, label %match_pathspec_with_flags.exit

15:                                               ; preds = %7
  %16 = or disjoint i32 %8, 1
  %17 = tail call fastcc i32 @do_match_pathspec(ptr noundef %0, ptr noundef nonnull readonly %1, ptr noundef %2, i32 noundef %3, i32 noundef %4, ptr noundef %5, i32 noundef %16)
  %.not.i = icmp eq i32 %17, 0
  %18 = select i1 %.not.i, i32 %9, i32 0
  br label %match_pathspec_with_flags.exit

match_pathspec_with_flags.exit:                   ; preds = %7, %15
  %.0.i = phi i32 [ %18, %15 ], [ %9, %7 ]
  ret i32 %.0.i
}